target datalayout = "e-m:e-p270:32:32-p271:32:32-p272:64:64-i64:64-i128:128-f80:128-n8:16:32:64-S128"
target triple = "x86_64-pc-linux-gnu"

%union.anon.6 = type { i64 }
%struct.gcm128_context = type { %union.anon.0, %union.anon.0, %union.anon.0, %union.anon.0, %union.anon.0, %union.anon.0, [16 x %struct.u128], ptr, ptr, i32, i32, ptr }
%union.anon.0 = type { [2 x i64] }
%struct.u128 = type { i64, i64 }

@__const.CRYPTO_gcm128_finish.is_endian = private unnamed_addr constant %union.anon.6 { i64 1 }, align 8

; Function Attrs: nounwind uwtable
define hidden i32 @CRYPTO_gcm128_finish(ptr noundef %0, ptr noundef %1, i64 noundef %2) #0 {
  %4 = alloca i32, align 4
  %5 = alloca ptr, align 8
  %6 = alloca ptr, align 8
  %7 = alloca i64, align 8
  %8 = alloca %union.anon.6, align 8
  %9 = alloca i64, align 8
  %10 = alloca i64, align 8
  %11 = alloca ptr, align 8
  %12 = alloca i64, align 8
  %13 = alloca i64, align 8
  %14 = alloca i64, align 8
  %15 = alloca i64, align 8
  %16 = alloca i32, align 4
  store ptr %0, ptr %5, align 8, !tbaa !6
  store ptr %1, ptr %6, align 8, !tbaa !29
  store i64 %2, ptr %7, align 8, !tbaa !16
  call void @llvm.lifetime.start.p0(i64 8, ptr %8) #5
  call void @llvm.memcpy.p0.p0.i64(ptr align 8 %8, ptr align 8 @__const.CRYPTO_gcm128_finish.is_endian, i64 8, i1 false)
  call void @llvm.lifetime.start.p0(i64 8, ptr %9) #5
  %17 = load ptr, ptr %5, align 8, !tbaa !6
  %18 = getelementptr inbounds nuw %struct.gcm128_context, ptr %17, i32 0, i32 3
  %19 = getelementptr inbounds [2 x i64], ptr %18, i64 0, i64 0
  %20 = load i64, ptr %19, align 8, !tbaa !15
  %21 = shl i64 %20, 3
  store i64 %21, ptr %9, align 8, !tbaa !16
  call void @llvm.lifetime.start.p0(i64 8, ptr %10) #5
  %22 = load ptr, ptr %5, align 8, !tbaa !6
  %23 = getelementptr inbounds nuw %struct.gcm128_context, ptr %22, i32 0, i32 3
  %24 = getelementptr inbounds [2 x i64], ptr %23, i64 0, i64 1
  %25 = load i64, ptr %24, align 8, !tbaa !15
  %26 = shl i64 %25, 3
  store i64 %26, ptr %10, align 8, !tbaa !16
  call void @llvm.lifetime.start.p0(i64 8, ptr %11) #5
  %27 = load ptr, ptr %5, align 8, !tbaa !6
  %28 = getelementptr inbounds nuw %struct.gcm128_context, ptr %27, i32 0, i32 7
  %29 = load ptr, ptr %28, align 8, !tbaa !21
  store ptr %29, ptr %11, align 8, !tbaa !11
  %30 = load ptr, ptr %5, align 8, !tbaa !6
  %31 = getelementptr inbounds nuw %struct.gcm128_context, ptr %30, i32 0, i32 9
  %32 = load i32, ptr %31, align 8, !tbaa !32
  %33 = icmp ne i32 %32, 0
  br i1 %33, label %39, label %34

34:                                               ; preds = %3
  %35 = load ptr, ptr %5, align 8, !tbaa !6
  %36 = getelementptr inbounds nuw %struct.gcm128_context, ptr %35, i32 0, i32 10
  %37 = load i32, ptr %36, align 4, !tbaa !31
  %38 = icmp ne i32 %37, 0
  br i1 %38, label %39, label %47

39:                                               ; preds = %34, %3
  %40 = load ptr, ptr %11, align 8, !tbaa !11
  %41 = load ptr, ptr %5, align 8, !tbaa !6
  %42 = getelementptr inbounds nuw %struct.gcm128_context, ptr %41, i32 0, i32 4
  %43 = getelementptr inbounds [2 x i64], ptr %42, i64 0, i64 0
  %44 = load ptr, ptr %5, align 8, !tbaa !6
  %45 = getelementptr inbounds nuw %struct.gcm128_context, ptr %44, i32 0, i32 6
  %46 = getelementptr inbounds [16 x %struct.u128], ptr %45, i64 0, i64 0
  call void %40(ptr noundef %43, ptr noundef %46)
  br label %47

47:                                               ; preds = %39, %34
  %48 = load i8, ptr %8, align 8, !tbaa !15
  %49 = icmp ne i8 %48, 0
  br i1 %49, label %50, label %61

50:                                               ; preds = %47
  call void @llvm.lifetime.start.p0(i64 8, ptr %12) #5
  %51 = load i64, ptr %9, align 8, !tbaa !16
  store i64 %51, ptr %12, align 8, !tbaa !16
  %52 = load i64, ptr %12, align 8, !tbaa !16
  %53 = call i64 asm "bswapq $0", "=r,0,~{dirflag},~{fpsr},~{flags}"(i64 %52) #6, !srcloc !60
  store i64 %53, ptr %12, align 8, !tbaa !16
  %54 = load i64, ptr %12, align 8, !tbaa !16
  store i64 %54, ptr %13, align 8, !tbaa !16
  call void @llvm.lifetime.end.p0(i64 8, ptr %12) #5
  %55 = load i64, ptr %13, align 8, !tbaa !16
  store i64 %55, ptr %9, align 8, !tbaa !16
  call void @llvm.lifetime.start.p0(i64 8, ptr %14) #5
  %56 = load i64, ptr %10, align 8, !tbaa !16
  store i64 %56, ptr %14, align 8, !tbaa !16
  %57 = load i64, ptr %14, align 8, !tbaa !16
  %58 = call i64 asm "bswapq $0", "=r,0,~{dirflag},~{fpsr},~{flags}"(i64 %57) #6, !srcloc !61
  store i64 %58, ptr %14, align 8, !tbaa !16
  %59 = load i64, ptr %14, align 8, !tbaa !16
  store i64 %59, ptr %15, align 8, !tbaa !16
  call void @llvm.lifetime.end.p0(i64 8, ptr %14) #5
  %60 = load i64, ptr %15, align 8, !tbaa !16
  store i64 %60, ptr %10, align 8, !tbaa !16
  br label %61

61:                                               ; preds = %50, %47
  %62 = load i64, ptr %9, align 8, !tbaa !16
  %63 = load ptr, ptr %5, align 8, !tbaa !6
  %64 = getelementptr inbounds nuw %struct.gcm128_context, ptr %63, i32 0, i32 4
  %65 = getelementptr inbounds [2 x i64], ptr %64, i64 0, i64 0
  %66 = load i64, ptr %65, align 8, !tbaa !15
  %67 = xor i64 %66, %62
  store i64 %67, ptr %65, align 8, !tbaa !15
  %68 = load i64, ptr %10, align 8, !tbaa !16
  %69 = load ptr, ptr %5, align 8, !tbaa !6
  %70 = getelementptr inbounds nuw %struct.gcm128_context, ptr %69, i32 0, i32 4
  %71 = getelementptr inbounds [2 x i64], ptr %70, i64 0, i64 1
  %72 = load i64, ptr %71, align 8, !tbaa !15
  %73 = xor i64 %72, %68
  store i64 %73, ptr %71, align 8, !tbaa !15
  %74 = load ptr, ptr %11, align 8, !tbaa !11
  %75 = load ptr, ptr %5, align 8, !tbaa !6
  %76 = getelementptr inbounds nuw %struct.gcm128_context, ptr %75, i32 0, i32 4
  %77 = getelementptr inbounds [2 x i64], ptr %76, i64 0, i64 0
  %78 = load ptr, ptr %5, align 8, !tbaa !6
  %79 = getelementptr inbounds nuw %struct.gcm128_context, ptr %78, i32 0, i32 6
  %80 = getelementptr inbounds [16 x %struct.u128], ptr %79, i64 0, i64 0
  call void %74(ptr noundef %77, ptr noundef %80)
  %81 = load ptr, ptr %5, align 8, !tbaa !6
  %82 = getelementptr inbounds nuw %struct.gcm128_context, ptr %81, i32 0, i32 2
  %83 = getelementptr inbounds [2 x i64], ptr %82, i64 0, i64 0
  %84 = load i64, ptr %83, align 8, !tbaa !15
  %85 = load ptr, ptr %5, align 8, !tbaa !6
  %86 = getelementptr inbounds nuw %struct.gcm128_context, ptr %85, i32 0, i32 4
  %87 = getelementptr inbounds [2 x i64], ptr %86, i64 0, i64 0
  %88 = load i64, ptr %87, align 8, !tbaa !15
  %89 = xor i64 %88, %84
  store i64 %89, ptr %87, align 8, !tbaa !15
  %90 = load ptr, ptr %5, align 8, !tbaa !6
  %91 = getelementptr inbounds nuw %struct.gcm128_context, ptr %90, i32 0, i32 2
  %92 = getelementptr inbounds [2 x i64], ptr %91, i64 0, i64 1
  %93 = load i64, ptr %92, align 8, !tbaa !15
  %94 = load ptr, ptr %5, align 8, !tbaa !6
  %95 = getelementptr inbounds nuw %struct.gcm128_context, ptr %94, i32 0, i32 4
  %96 = getelementptr inbounds [2 x i64], ptr %95, i64 0, i64 1
  %97 = load i64, ptr %96, align 8, !tbaa !15
  %98 = xor i64 %97, %93
  store i64 %98, ptr %96, align 8, !tbaa !15
  %99 = load ptr, ptr %6, align 8, !tbaa !29
  %100 = icmp ne ptr %99, null
  br i1 %100, label %101, label %113

101:                                              ; preds = %61
  %102 = load i64, ptr %7, align 8, !tbaa !16
  %103 = icmp ule i64 %102, 16
  br i1 %103, label %104, label %113

104:                                              ; preds = %101
  %105 = load ptr, ptr %5, align 8, !tbaa !6
  %106 = getelementptr inbounds nuw %struct.gcm128_context, ptr %105, i32 0, i32 4
  %107 = getelementptr inbounds [16 x i8], ptr %106, i64 0, i64 0
  %108 = load ptr, ptr %6, align 8, !tbaa !29
  %109 = load i64, ptr %7, align 8, !tbaa !16
  %110 = call i32 @CRYPTO_memcmp(ptr noundef %107, ptr noundef %108, i64 noundef %109)
  %111 = icmp eq i32 %110, 0
  %112 = zext i1 %111 to i32
  store i32 %112, ptr %4, align 4
  store i32 1, ptr %16, align 4
  br label %114

113:                                              ; preds = %101, %61
  store i32 0, ptr %4, align 4
  store i32 1, ptr %16, align 4
  br label %114

114:                                              ; preds = %113, %104
  call void @llvm.lifetime.end.p0(i64 8, ptr %11) #5
  call void @llvm.lifetime.end.p0(i64 8, ptr %10) #5
  call void @llvm.lifetime.end.p0(i64 8, ptr %9) #5
  call void @llvm.lifetime.end.p0(i64 8, ptr %8) #5
  %115 = load i32, ptr %4, align 4
  ret i32 %115
}

; Function Attrs: nounwind uwtable
define hidden void @CRYPTO_gcm128_tag(ptr noundef %0, ptr noundef %1, i64 noundef %2) #0 {
  %4 = alloca ptr, align 8
  %5 = alloca ptr, align 8
  %6 = alloca i64, align 8
  store ptr %0, ptr %4, align 8, !tbaa !6
  store ptr %1, ptr %5, align 8, !tbaa !29
  store i64 %2, ptr %6, align 8, !tbaa !16
  %7 = load ptr, ptr %4, align 8, !tbaa !6
  %8 = call i32 @CRYPTO_gcm128_finish(ptr noundef %7, ptr noundef null, i64 noundef 0)
  %9 = load ptr, ptr %5, align 8, !tbaa !29
  %10 = load ptr, ptr %4, align 8, !tbaa !6
  %11 = getelementptr inbounds nuw %struct.gcm128_context, ptr %10, i32 0, i32 4
  %12 = getelementptr inbounds [16 x i8], ptr %11, i64 0, i64 0
  %13 = load i64, ptr %6, align 8, !tbaa !16
  %14 = icmp ule i64 %13, 16
  br i1 %14, label %15, label %17

15:                                               ; preds = %3
  %16 = load i64, ptr %6, align 8, !tbaa !16
  br label %18

17:                                               ; preds = %3
  br label %18

18:                                               ; preds = %17, %15
  %19 = phi i64 [ %16, %15 ], [ 16, %17 ]
  call void @llvm.memcpy.p0.p0.i64(ptr align 1 %9, ptr align 8 %12, i64 %19, i1 false)
  ret void
}