; Function Attrs: nounwind uwtable
define hidden void @CRYPTO_gcm128_tag(ptr noundef %0, ptr noundef writeonly captures(none) %1, i64 noundef %2) local_unnamed_addr #0 {
  %4 = getelementptr inbounds nuw i8, ptr %0, i64 48
  %5 = load i64, ptr %4, align 8, !tbaa !12
  %6 = getelementptr inbounds nuw i8, ptr %0, i64 56
  %7 = load i64, ptr %6, align 8, !tbaa !12
  %8 = getelementptr inbounds nuw i8, ptr %0, i64 352
  %9 = load ptr, ptr %8, align 8, !tbaa !16
  %10 = getelementptr inbounds nuw i8, ptr %0, i64 368
  %11 = load i32, ptr %10, align 8, !tbaa !24
  %.not.i = icmp eq i32 %11, 0
  br i1 %.not.i, label %12, label %15

12:                                               ; preds = %3
  %13 = getelementptr inbounds nuw i8, ptr %0, i64 372
  %14 = load i32, ptr %13, align 4, !tbaa !23
  %.not37.i = icmp eq i32 %14, 0
  br i1 %.not37.i, label %CRYPTO_gcm128_finish.exit, label %15

15:                                               ; preds = %12, %3
  %16 = getelementptr inbounds nuw i8, ptr %0, i64 64
  %17 = getelementptr inbounds nuw i8, ptr %0, i64 96
  tail call void %9(ptr noundef nonnull %16, ptr noundef nonnull %17) #6
  br label %CRYPTO_gcm128_finish.exit

CRYPTO_gcm128_finish.exit:                        ; preds = %12, %15
  %18 = shl i64 %7, 3
  %19 = shl i64 %5, 3
  %20 = tail call i64 asm "bswapq $0", "=r,0,~{dirflag},~{fpsr},~{flags}"(i64 %19) #7, !srcloc !48
  %21 = tail call i64 asm "bswapq $0", "=r,0,~{dirflag},~{fpsr},~{flags}"(i64 %18) #7, !srcloc !49
  %22 = getelementptr inbounds nuw i8, ptr %0, i64 64
  %23 = load i64, ptr %22, align 8, !tbaa !12
  %24 = xor i64 %23, %20
  store i64 %24, ptr %22, align 8, !tbaa !12
  %25 = getelementptr inbounds nuw i8, ptr %0, i64 72
  %26 = load i64, ptr %25, align 8, !tbaa !12
  %27 = xor i64 %26, %21
  store i64 %27, ptr %25, align 8, !tbaa !12
  %28 = getelementptr inbounds nuw i8, ptr %0, i64 96
  tail call void %9(ptr noundef nonnull %22, ptr noundef nonnull %28) #6
  %29 = getelementptr inbounds nuw i8, ptr %0, i64 32
  %30 = load i64, ptr %29, align 8, !tbaa !12
  %31 = load i64, ptr %22, align 8, !tbaa !12
  %32 = xor i64 %31, %30
  store i64 %32, ptr %22, align 8, !tbaa !12
  %33 = getelementptr inbounds nuw i8, ptr %0, i64 40
  %34 = load i64, ptr %33, align 8, !tbaa !12
  %35 = load i64, ptr %25, align 8, !tbaa !12
  %36 = xor i64 %35, %34
  store i64 %36, ptr %25, align 8, !tbaa !12
  %37 = tail call i64 @llvm.umin.i64(i64 %2, i64 16)
  tail call void @llvm.memcpy.p0.p0.i64(ptr align 1 %1, ptr nonnull align 8 %22, i64 %37, i1 false)
  ret void
}